target datalayout = "e-m:e-p270:32:32-p271:32:32-p272:64:64-i64:64-i128:128-f80:128-n8:16:32:64-S128"
target triple = "x86_64-pc-linux-gnu"

%class.params_ref = type { ptr }
%class.probe = type <{ ptr, i32, [4 x i8] }>

@.str = private unnamed_addr constant [10 x i8] c"arith_lhs\00", align 1
@.str.1 = private unnamed_addr constant [9 x i8] c"elim_and\00", align 1
@_ZTV17is_fp_qfnra_probe = linkonce_odr hidden unnamed_addr constant { [5 x ptr] } { [5 x ptr] [ptr null, ptr @_ZTI17is_fp_qfnra_probe, ptr @_ZN5probeD2Ev, ptr @_ZN17is_fp_qfnra_probeD0Ev, ptr @_ZN17is_fp_qfnra_probeclERK4goal] }, comdat, align 8
@_ZTV5probe = linkonce_odr hidden unnamed_addr constant { [5 x ptr] } { [5 x ptr] [ptr null, ptr @_ZTI5probe, ptr @_ZN5probeD2Ev, ptr @_ZN5probeD0Ev, ptr @__cxa_pure_virtual] }, comdat, align 8

; Function Attrs: inlinehint mustprogress nounwind uwtable
define linkonce_odr hidden void @_ZN5probeC2Ev(ptr noundef nonnull align 8 dereferenceable(12) %0) unnamed_addr #6 comdat align 2 {
  %2 = alloca ptr, align 8
  store ptr %0, ptr %2, align 8, !tbaa !18
  %3 = load ptr, ptr %2, align 8
  store ptr getelementptr inbounds inrange(-16, 24) ({ [5 x ptr] }, ptr @_ZTV5probe, i32 0, i32 0, i32 2), ptr %3, align 8, !tbaa !8
  %4 = getelementptr inbounds nuw %class.probe, ptr %3, i32 0, i32 1
  store i32 0, ptr %4, align 8, !tbaa !20
  ret void
}

; Function Attrs: inlinehint mustprogress nounwind uwtable
define linkonce_odr hidden void @_ZN17is_fp_qfnra_probeC2Ev(ptr noundef nonnull align 8 dereferenceable(12) %0) unnamed_addr #6 comdat align 2 {
  %2 = alloca ptr, align 8
  store ptr %0, ptr %2, align 8, !tbaa !3
  %3 = load ptr, ptr %2, align 8
  call void @_ZN5probeC2Ev(ptr noundef nonnull align 8 dereferenceable(12) %3) #3
  store ptr getelementptr inbounds inrange(-16, 24) ({ [5 x ptr] }, ptr @_ZTV17is_fp_qfnra_probe, i32 0, i32 0, i32 2), ptr %3, align 8, !tbaa !8
  ret void
}

; Function Attrs: mustprogress uwtable
define hidden noundef ptr @_Z20mk_is_fp_qfnra_probev() #4 {
  %1 = call noalias noundef ptr @_ZN6memory8allocateEm(i64 noundef 16)
  call void @llvm.memset.p0.i64(ptr align 8 %1, i8 0, i64 16, i1 false)
  call void @_ZN17is_fp_qfnra_probeC2Ev(ptr noundef nonnull align 8 dereferenceable(12) %1) #3
  ret ptr %1
}

; Function Attrs: mustprogress uwtable
define hidden noundef ptr @_Z14mk_qffp_tacticR11ast_managerRK10params_ref(ptr noundef nonnull align 8 dereferenceable(976) %0, ptr noundef nonnull align 8 dereferenceable(8) %1) #4 personality ptr @__gxx_personality_v0 {
  %3 = alloca ptr, align 8
  %4 = alloca ptr, align 8
  %5 = alloca %class.params_ref, align 8
  %6 = alloca ptr, align 8
  %7 = alloca i32, align 4
  %8 = alloca ptr, align 8
  %9 = alloca ptr, align 8
  store ptr %0, ptr %3, align 8, !tbaa !10
  store ptr %1, ptr %4, align 8, !tbaa !12
  call void @llvm.lifetime.start.p0(i64 8, ptr %5) #3
  %10 = load ptr, ptr %4, align 8, !tbaa !12
  call void @_ZN10params_refC1ERKS_(ptr noundef nonnull align 8 dereferenceable(8) %5, ptr noundef nonnull align 8 dereferenceable(8) %10)
  invoke void @_ZN10params_ref8set_boolEPKcb(ptr noundef nonnull align 8 dereferenceable(8) %5, ptr noundef @.str, i1 noundef zeroext true)
          to label %11 unwind label %92

11:                                               ; preds = %2
  invoke void @_ZN10params_ref8set_boolEPKcb(ptr noundef nonnull align 8 dereferenceable(8) %5, ptr noundef @.str.1, i1 noundef zeroext true)
          to label %12 unwind label %92

12:                                               ; preds = %11
  call void @llvm.lifetime.start.p0(i64 8, ptr %8) #3
  %13 = load ptr, ptr %3, align 8, !tbaa !10
  %14 = invoke noundef ptr @_Z18mk_simplify_tacticR11ast_managerRK10params_ref(ptr noundef nonnull align 8 dereferenceable(976) %13, ptr noundef nonnull align 8 dereferenceable(8) %5)
          to label %15 unwind label %96

15:                                               ; preds = %12
  %16 = load ptr, ptr %3, align 8, !tbaa !10
  %17 = load ptr, ptr %4, align 8, !tbaa !12
  %18 = invoke noundef ptr @_Z26mk_propagate_values_tacticR11ast_managerRK10params_ref(ptr noundef nonnull align 8 dereferenceable(976) %16, ptr noundef nonnull align 8 dereferenceable(8) %17)
          to label %19 unwind label %96

19:                                               ; preds = %15
  %20 = load ptr, ptr %3, align 8, !tbaa !10
  %21 = load ptr, ptr %4, align 8, !tbaa !12
  %22 = invoke noundef ptr @_Z16mk_fpa2bv_tacticR11ast_managerRK10params_ref(ptr noundef nonnull align 8 dereferenceable(976) %20, ptr noundef nonnull align 8 dereferenceable(8) %21)
          to label %23 unwind label %96

23:                                               ; preds = %19
  %24 = load ptr, ptr %3, align 8, !tbaa !10
  %25 = load ptr, ptr %4, align 8, !tbaa !12
  %26 = invoke noundef ptr @_Z26mk_propagate_values_tacticR11ast_managerRK10params_ref(ptr noundef nonnull align 8 dereferenceable(976) %24, ptr noundef nonnull align 8 dereferenceable(8) %25)
          to label %27 unwind label %96

27:                                               ; preds = %23
  %28 = load ptr, ptr %3, align 8, !tbaa !10
  %29 = load ptr, ptr %4, align 8, !tbaa !12
  %30 = invoke noundef ptr @_Z18mk_simplify_tacticR11ast_managerRK10params_ref(ptr noundef nonnull align 8 dereferenceable(976) %28, ptr noundef nonnull align 8 dereferenceable(8) %29)
          to label %31 unwind label %96

31:                                               ; preds = %27
  %32 = invoke noundef ptr @_Z12using_paramsP6tacticRK10params_ref(ptr noundef %30, ptr noundef nonnull align 8 dereferenceable(8) %5)
          to label %33 unwind label %96

33:                                               ; preds = %31
  %34 = load ptr, ptr %3, align 8, !tbaa !10
  %35 = load ptr, ptr %4, align 8, !tbaa !12
  %36 = invoke noundef ptr @_Z25mk_ackermannize_bv_tacticR11ast_managerRK10params_ref(ptr noundef nonnull align 8 dereferenceable(976) %34, ptr noundef nonnull align 8 dereferenceable(8) %35)
          to label %37 unwind label %96

37:                                               ; preds = %33
  %38 = invoke noundef ptr @_Z17if_no_unsat_coresP6tactic(ptr noundef %36)
          to label %39 unwind label %96

39:                                               ; preds = %37
  %40 = invoke noundef ptr @_Z12if_no_proofsP6tactic(ptr noundef %38)
          to label %41 unwind label %96

41:                                               ; preds = %39
  %42 = invoke noundef ptr @_Z8and_thenP6tacticS0_S0_S0_S0_S0_(ptr noundef %14, ptr noundef %18, ptr noundef %22, ptr noundef %26, ptr noundef %32, ptr noundef %40)
          to label %43 unwind label %96

43:                                               ; preds = %41
  store ptr %42, ptr %8, align 8, !tbaa !14
  call void @llvm.lifetime.start.p0(i64 8, ptr %9) #3
  %44 = load ptr, ptr %8, align 8, !tbaa !14
  %45 = load ptr, ptr %3, align 8, !tbaa !10
  %46 = load ptr, ptr %4, align 8, !tbaa !12
  %47 = invoke noundef ptr @_Z21mk_bit_blaster_tacticR11ast_managerRK10params_ref(ptr noundef nonnull align 8 dereferenceable(976) %45, ptr noundef nonnull align 8 dereferenceable(8) %46)
          to label %48 unwind label %100

48:                                               ; preds = %43
  %49 = load ptr, ptr %3, align 8, !tbaa !10
  %50 = load ptr, ptr %4, align 8, !tbaa !12
  %51 = invoke noundef ptr @_Z18mk_simplify_tacticR11ast_managerRK10params_ref(ptr noundef nonnull align 8 dereferenceable(976) %49, ptr noundef nonnull align 8 dereferenceable(8) %50)
          to label %52 unwind label %100

52:                                               ; preds = %48
  %53 = invoke noundef ptr @_Z12using_paramsP6tacticRK10params_ref(ptr noundef %51, ptr noundef nonnull align 8 dereferenceable(8) %5)
          to label %54 unwind label %100

54:                                               ; preds = %52
  %55 = invoke noundef ptr @_Z25mk_is_propositional_probev()
          to label %56 unwind label %100

56:                                               ; preds = %54
  %57 = invoke noundef ptr @_Z23mk_produce_proofs_probev()
          to label %58 unwind label %100

58:                                               ; preds = %56
  %59 = load ptr, ptr %3, align 8, !tbaa !10
  %60 = load ptr, ptr %4, align 8, !tbaa !12
  %61 = invoke noundef ptr @_Z13mk_smt_tacticR11ast_managerRK10params_ref(ptr noundef nonnull align 8 dereferenceable(976) %59, ptr noundef nonnull align 8 dereferenceable(8) %60)
          to label %62 unwind label %100

62:                                               ; preds = %58
  %63 = load ptr, ptr %3, align 8, !tbaa !10
  %64 = load ptr, ptr %4, align 8, !tbaa !12
  %65 = invoke noundef ptr @_Z14mk_psat_tacticR11ast_managerRK10params_ref(ptr noundef nonnull align 8 dereferenceable(976) %63, ptr noundef nonnull align 8 dereferenceable(8) %64)
          to label %66 unwind label %100

66:                                               ; preds = %62
  %67 = invoke noundef ptr @_Z4condP5probeP6tacticS2_(ptr noundef %57, ptr noundef %61, ptr noundef %65)
          to label %68 unwind label %100

68:                                               ; preds = %66
  %69 = invoke noundef ptr @_Z20mk_is_fp_qfnra_probev()
          to label %70 unwind label %100

70:                                               ; preds = %68
  %71 = load ptr, ptr %3, align 8, !tbaa !10
  %72 = load ptr, ptr %4, align 8, !tbaa !12
  %73 = invoke noundef ptr @_Z15mk_qfnra_tacticR11ast_managerRK10params_ref(ptr noundef nonnull align 8 dereferenceable(976) %71, ptr noundef nonnull align 8 dereferenceable(8) %72)
          to label %74 unwind label %100

74:                                               ; preds = %70
  %75 = load ptr, ptr %3, align 8, !tbaa !10
  %76 = load ptr, ptr %4, align 8, !tbaa !12
  %77 = invoke noundef ptr @_Z13mk_smt_tacticR11ast_managerRK10params_ref(ptr noundef nonnull align 8 dereferenceable(976) %75, ptr noundef nonnull align 8 dereferenceable(8) %76)
          to label %78 unwind label %100

78:                                               ; preds = %74
  %79 = invoke noundef ptr @_Z4condP5probeP6tacticS2_(ptr noundef %69, ptr noundef %73, ptr noundef %77)
          to label %80 unwind label %100

80:                                               ; preds = %78
  %81 = invoke noundef ptr @_Z4condP5probeP6tacticS2_(ptr noundef %55, ptr noundef %67, ptr noundef %79)
          to label %82 unwind label %100

82:                                               ; preds = %80
  %83 = invoke noundef ptr @_Z8and_thenP6tacticS0_S0_S0_(ptr noundef %44, ptr noundef %47, ptr noundef %53, ptr noundef %81)
          to label %84 unwind label %100

84:                                               ; preds = %82
  store ptr %83, ptr %9, align 8, !tbaa !14
  %85 = load ptr, ptr %9, align 8, !tbaa !14
  %86 = load ptr, ptr %4, align 8, !tbaa !12
  %87 = load ptr, ptr %85, align 8, !tbaa !8
  %88 = getelementptr inbounds ptr, ptr %87, i64 13
  %89 = load ptr, ptr %88, align 8
  invoke void %89(ptr noundef nonnull align 8 dereferenceable(12) %85, ptr noundef nonnull align 8 dereferenceable(8) %86)
          to label %90 unwind label %100

90:                                               ; preds = %84
  %91 = load ptr, ptr %9, align 8, !tbaa !14
  call void @llvm.lifetime.end.p0(i64 8, ptr %9) #3
  call void @llvm.lifetime.end.p0(i64 8, ptr %8) #3
  call void @_ZN10params_refD1Ev(ptr noundef nonnull align 8 dereferenceable(8) %5) #3
  call void @llvm.lifetime.end.p0(i64 8, ptr %5) #3
  ret ptr %91

92:                                               ; preds = %11, %2
  %93 = landingpad { ptr, i32 }
          cleanup
  %94 = extractvalue { ptr, i32 } %93, 0
  store ptr %94, ptr %6, align 8
  %95 = extractvalue { ptr, i32 } %93, 1
  store i32 %95, ptr %7, align 4
  br label %105

96:                                               ; preds = %41, %39, %37, %33, %31, %27, %23, %19, %15, %12
  %97 = landingpad { ptr, i32 }
          cleanup
  %98 = extractvalue { ptr, i32 } %97, 0
  store ptr %98, ptr %6, align 8
  %99 = extractvalue { ptr, i32 } %97, 1
  store i32 %99, ptr %7, align 4
  br label %104

100:                                              ; preds = %84, %82, %80, %78, %74, %70, %68, %66, %62, %58, %56, %54, %52, %48, %43
  %101 = landingpad { ptr, i32 }
          cleanup
  %102 = extractvalue { ptr, i32 } %101, 0
  store ptr %102, ptr %6, align 8
  %103 = extractvalue { ptr, i32 } %101, 1
  store i32 %103, ptr %7, align 4
  call void @llvm.lifetime.end.p0(i64 8, ptr %9) #3
  br label %104

104:                                              ; preds = %100, %96
  call void @llvm.lifetime.end.p0(i64 8, ptr %8) #3
  br label %105

105:                                              ; preds = %104, %92
  call void @_ZN10params_refD1Ev(ptr noundef nonnull align 8 dereferenceable(8) %5) #3
  call void @llvm.lifetime.end.p0(i64 8, ptr %5) #3
  br label %106

106:                                              ; preds = %105
  %107 = load ptr, ptr %6, align 8
  %108 = load i32, ptr %7, align 4
  %109 = insertvalue { ptr, i32 } poison, ptr %107, 0
  %110 = insertvalue { ptr, i32 } %109, i32 %108, 1
  resume { ptr, i32 } %110
}