; Function Attrs: mustprogress uwtable
define hidden noundef ptr @_Z14mk_qffp_tacticR11ast_managerRK10params_ref(ptr noundef nonnull align 8 dereferenceable(976) %0, ptr noundef nonnull align 8 dereferenceable(8) %1) local_unnamed_addr #3 personality ptr @__gxx_personality_v0 {
  %3 = alloca %class.params_ref, align 8
  call void @llvm.lifetime.start.p0(i64 8, ptr nonnull %3) #19
  call void @_ZN10params_refC1ERKS_(ptr noundef nonnull align 8 dereferenceable(8) %3, ptr noundef nonnull align 8 dereferenceable(8) %1)
  invoke void @_ZN10params_ref8set_boolEPKcb(ptr noundef nonnull align 8 dereferenceable(8) %3, ptr noundef nonnull @.str, i1 noundef zeroext true)
          to label %4 unwind label %59

4:                                                ; preds = %2
  invoke void @_ZN10params_ref8set_boolEPKcb(ptr noundef nonnull align 8 dereferenceable(8) %3, ptr noundef nonnull @.str.1, i1 noundef zeroext true)
          to label %5 unwind label %59

5:                                                ; preds = %4
  %6 = invoke noundef ptr @_Z18mk_simplify_tacticR11ast_managerRK10params_ref(ptr noundef nonnull align 8 dereferenceable(976) %0, ptr noundef nonnull align 8 dereferenceable(8) %3)
          to label %7 unwind label %61

7:                                                ; preds = %5
  %8 = invoke noundef ptr @_Z26mk_propagate_values_tacticR11ast_managerRK10params_ref(ptr noundef nonnull align 8 dereferenceable(976) %0, ptr noundef nonnull align 8 dereferenceable(8) %1)
          to label %9 unwind label %61

9:                                                ; preds = %7
  %10 = invoke noundef ptr @_Z16mk_fpa2bv_tacticR11ast_managerRK10params_ref(ptr noundef nonnull align 8 dereferenceable(976) %0, ptr noundef nonnull align 8 dereferenceable(8) %1)
          to label %11 unwind label %61

11:                                               ; preds = %9
  %12 = invoke noundef ptr @_Z26mk_propagate_values_tacticR11ast_managerRK10params_ref(ptr noundef nonnull align 8 dereferenceable(976) %0, ptr noundef nonnull align 8 dereferenceable(8) %1)
          to label %13 unwind label %61

13:                                               ; preds = %11
  %14 = invoke noundef ptr @_Z18mk_simplify_tacticR11ast_managerRK10params_ref(ptr noundef nonnull align 8 dereferenceable(976) %0, ptr noundef nonnull align 8 dereferenceable(8) %1)
          to label %15 unwind label %61

15:                                               ; preds = %13
  %16 = invoke noundef ptr @_Z12using_paramsP6tacticRK10params_ref(ptr noundef %14, ptr noundef nonnull align 8 dereferenceable(8) %3)
          to label %17 unwind label %61

17:                                               ; preds = %15
  %18 = invoke noundef ptr @_Z25mk_ackermannize_bv_tacticR11ast_managerRK10params_ref(ptr noundef nonnull align 8 dereferenceable(976) %0, ptr noundef nonnull align 8 dereferenceable(8) %1)
          to label %19 unwind label %61

19:                                               ; preds = %17
  %20 = invoke noundef ptr @_Z17if_no_unsat_coresP6tactic(ptr noundef %18)
          to label %21 unwind label %61

21:                                               ; preds = %19
  %22 = invoke noundef ptr @_Z12if_no_proofsP6tactic(ptr noundef %20)
          to label %23 unwind label %61

23:                                               ; preds = %21
  %24 = invoke noundef ptr @_Z8and_thenP6tacticS0_S0_S0_S0_S0_(ptr noundef %6, ptr noundef %8, ptr noundef %10, ptr noundef %12, ptr noundef %16, ptr noundef %22)
          to label %25 unwind label %61

25:                                               ; preds = %23
  %26 = invoke noundef ptr @_Z21mk_bit_blaster_tacticR11ast_managerRK10params_ref(ptr noundef nonnull align 8 dereferenceable(976) %0, ptr noundef nonnull align 8 dereferenceable(8) %1)
          to label %27 unwind label %63

27:                                               ; preds = %25
  %28 = invoke noundef ptr @_Z18mk_simplify_tacticR11ast_managerRK10params_ref(ptr noundef nonnull align 8 dereferenceable(976) %0, ptr noundef nonnull align 8 dereferenceable(8) %1)
          to label %29 unwind label %63

29:                                               ; preds = %27
  %30 = invoke noundef ptr @_Z12using_paramsP6tacticRK10params_ref(ptr noundef %28, ptr noundef nonnull align 8 dereferenceable(8) %3)
          to label %31 unwind label %63

31:                                               ; preds = %29
  %32 = invoke noundef ptr @_Z25mk_is_propositional_probev()
          to label %33 unwind label %63

33:                                               ; preds = %31
  %34 = invoke noundef ptr @_Z23mk_produce_proofs_probev()
          to label %35 unwind label %63

35:                                               ; preds = %33
  %36 = invoke noundef ptr @_Z13mk_smt_tacticR11ast_managerRK10params_ref(ptr noundef nonnull align 8 dereferenceable(976) %0, ptr noundef nonnull align 8 dereferenceable(8) %1)
          to label %37 unwind label %63

37:                                               ; preds = %35
  %38 = invoke noundef ptr @_Z14mk_psat_tacticR11ast_managerRK10params_ref(ptr noundef nonnull align 8 dereferenceable(976) %0, ptr noundef nonnull align 8 dereferenceable(8) %1)
          to label %39 unwind label %63

39:                                               ; preds = %37
  %40 = invoke noundef ptr @_Z4condP5probeP6tacticS2_(ptr noundef %34, ptr noundef %36, ptr noundef %38)
          to label %41 unwind label %63

41:                                               ; preds = %39
  %42 = invoke noalias noundef ptr @_ZN6memory8allocateEm(i64 noundef 16)
          to label %43 unwind label %63

43:                                               ; preds = %41
  %44 = getelementptr inbounds nuw i8, ptr %42, i64 8
  store i64 0, ptr %44, align 8
  store ptr getelementptr inbounds nuw inrange(-16, 24) (i8, ptr @_ZTV17is_fp_qfnra_probe, i64 16), ptr %42, align 8, !tbaa !3
  %45 = invoke noundef ptr @_Z15mk_qfnra_tacticR11ast_managerRK10params_ref(ptr noundef nonnull align 8 dereferenceable(976) %0, ptr noundef nonnull align 8 dereferenceable(8) %1)
          to label %46 unwind label %63

46:                                               ; preds = %43
  %47 = invoke noundef ptr @_Z13mk_smt_tacticR11ast_managerRK10params_ref(ptr noundef nonnull align 8 dereferenceable(976) %0, ptr noundef nonnull align 8 dereferenceable(8) %1)
          to label %48 unwind label %63

48:                                               ; preds = %46
  %49 = invoke noundef ptr @_Z4condP5probeP6tacticS2_(ptr noundef nonnull %42, ptr noundef %45, ptr noundef %47)
          to label %50 unwind label %63

50:                                               ; preds = %48
  %51 = invoke noundef ptr @_Z4condP5probeP6tacticS2_(ptr noundef %32, ptr noundef %40, ptr noundef %49)
          to label %52 unwind label %63

52:                                               ; preds = %50
  %53 = invoke noundef ptr @_Z8and_thenP6tacticS0_S0_S0_(ptr noundef %24, ptr noundef %26, ptr noundef %30, ptr noundef %51)
          to label %54 unwind label %63

54:                                               ; preds = %52
  %55 = load ptr, ptr %53, align 8, !tbaa !3
  %56 = getelementptr inbounds nuw i8, ptr %55, i64 104
  %57 = load ptr, ptr %56, align 8
  invoke void %57(ptr noundef nonnull align 8 dereferenceable(12) %53, ptr noundef nonnull align 8 dereferenceable(8) %1)
          to label %58 unwind label %63

58:                                               ; preds = %54
  call void @_ZN10params_refD1Ev(ptr noundef nonnull align 8 dereferenceable(8) %3) #19
  call void @llvm.lifetime.end.p0(i64 8, ptr nonnull %3) #19
  ret ptr %53

59:                                               ; preds = %4, %2
  %60 = landingpad { ptr, i32 }
          cleanup
  br label %65

61:                                               ; preds = %23, %21, %19, %17, %15, %13, %11, %9, %7, %5
  %62 = landingpad { ptr, i32 }
          cleanup
  br label %65

63:                                               ; preds = %41, %54, %52, %50, %48, %46, %43, %39, %37, %35, %33, %31, %29, %27, %25
  %64 = landingpad { ptr, i32 }
          cleanup
  br label %65

65:                                               ; preds = %61, %63, %59
  %.pn.pn = phi { ptr, i32 } [ %60, %59 ], [ %64, %63 ], [ %62, %61 ]
  call void @_ZN10params_refD1Ev(ptr noundef nonnull align 8 dereferenceable(8) %3) #19
  call void @llvm.lifetime.end.p0(i64 8, ptr nonnull %3) #19
  resume { ptr, i32 } %.pn.pn
}